TN:
SF:/usr/include/c++/9/bits/basic_string.h
FN:247,_ZNSt7__cxx1112basic_stringIcSt11char_traitsIcESaIcEE16_M_construct_auxIPcEEvT_S7_St12__false_type
FNDA:96,_ZNSt7__cxx1112basic_stringIcSt11char_traitsIcESaIcEE16_M_construct_auxIPcEEvT_S7_St12__false_type
FN:247,_ZNSt7__cxx1112basic_stringIcSt11char_traitsIcESaIcEE16_M_construct_auxIPKcEEvT_S8_St12__false_type
FNDA:140,_ZNSt7__cxx1112basic_stringIcSt11char_traitsIcESaIcEE16_M_construct_auxIPKcEEvT_S8_St12__false_type
FN:267,_ZNSt7__cxx1112basic_stringIcSt11char_traitsIcESaIcEE12_M_constructIPcEEvT_S7_
FNDA:96,_ZNSt7__cxx1112basic_stringIcSt11char_traitsIcESaIcEE12_M_constructIPcEEvT_S7_
FN:267,_ZNSt7__cxx1112basic_stringIcSt11char_traitsIcESaIcEE12_M_constructIPKcEEvT_S8_
FNDA:140,_ZNSt7__cxx1112basic_stringIcSt11char_traitsIcESaIcEE12_M_constructIPKcEEvT_S8_
FN:529,_ZNSt7__cxx1112basic_stringIcSt11char_traitsIcESaIcEEC2IS3_EEPKcRKS3_
FNDA:140,_ZNSt7__cxx1112basic_stringIcSt11char_traitsIcESaIcEEC2IS3_EEPKcRKS3_
FN:629,_ZNSt7__cxx1112basic_stringIcSt11char_traitsIcESaIcEEC2IPcvEET_S7_RKS3_
FNDA:96,_ZNSt7__cxx1112basic_stringIcSt11char_traitsIcESaIcEEC2IPcvEET_S7_RKS3_
FN:6100,_ZStplIcSt11char_traitsIcESaIcEENSt7__cxx1112basic_stringIT_T0_T1_EEOS8_S9_
FNDA:192,_ZStplIcSt11char_traitsIcESaIcEENSt7__cxx1112basic_stringIT_T0_T1_EEOS8_S9_
FN:6124,_ZStplIcSt11char_traitsIcESaIcEENSt7__cxx1112basic_stringIT_T0_T1_EEOS8_PKS5_
FNDA:96,_ZStplIcSt11char_traitsIcESaIcEENSt7__cxx1112basic_stringIT_T0_T1_EEOS8_PKS5_
FN:6178,_ZSteqIcSt11char_traitsIcESaIcEEbRKNSt7__cxx1112basic_stringIT_T0_T1_EEPKS5_
FNDA:44,_ZSteqIcSt11char_traitsIcESaIcEEbRKNSt7__cxx1112basic_stringIT_T0_T1_EEPKS5_
FN:6549,_ZNSt7__cxx119to_stringEi
FNDA:96,_ZNSt7__cxx119to_stringEi
DA:247,96
DA:251,96
DA:252,96
DA:247,140
DA:251,140
DA:252,140
DA:267,96
DA:270,96
DA:271,96
DA:267,140
DA:270,140
DA:271,140
DA:529,140
DA:530,140
DA:531,140
DA:629,96
DA:631,96
DA:632,96
DA:6100,192
DA:6103,192
DA:6104,192
DA:6105,192
DA:6106,0
DA:6107,192
DA:6124,96
DA:6126,96
DA:6178,44
DA:6180,44
DA:6549,96
DA:6551,96
end_of_record
SF:/usr/include/c++/9/bits/char_traits.h
FN:100,_ZN9__gnu_cxx11char_traitsIcE2eqERKcS3_
FNDA:0,_ZN9__gnu_cxx11char_traitsIcE2eqERKcS3_
FN:161,_ZN9__gnu_cxx11char_traitsIcE6lengthEPKc
FNDA:0,_ZN9__gnu_cxx11char_traitsIcE6lengthEPKc
FN:336,_ZNSt11char_traitsIcE6lengthEPKc
FNDA:140,_ZNSt11char_traitsIcE6lengthEPKc
FN:368,_ZNSt11char_traitsIcE4copyEPcPKcm
FNDA:0,_ZNSt11char_traitsIcE4copyEPcPKcm
DA:100,0
DA:101,0
DA:161,0
DA:164,0
DA:165,0
DA:166,0
DA:167,0
DA:236,140
DA:336,140
DA:339,140
DA:340,0
DA:342,140
DA:368,0
DA:370,0
DA:371,0
DA:372,0
end_of_record
SF:/home/ptesic@syrmia.com/Desktop/VS/final_exam/2023_Analysis_Compound_Unit/unit_tests/CU_source_code/compound_unit.hpp
FN:181,_ZN4unit13to_str_type_tINS_13compound_unitIJNS_5meterILi2EEENS_6secondILin6EEEEEELb0EE3strB5cxx11Ev
FNDA:4,_ZN4unit13to_str_type_tINS_13compound_unitIJNS_5meterILi2EEENS_6secondILin6EEEEEELb0EE3strB5cxx11Ev
FN:181,_ZN4unit13to_str_type_tINS_13compound_unitIJNS_5meterILi1EEENS_6secondILin1EEEEEELb0EE3strB5cxx11Ev
FNDA:4,_ZN4unit13to_str_type_tINS_13compound_unitIJNS_5meterILi1EEENS_6secondILin1EEEEEELb0EE3strB5cxx11Ev
FN:181,_ZN4unit13to_str_type_tINS_13compound_unitIJNS_6secondILi2EEENS2_ILi3EEENS_5meterILi1EEENS2_ILin2EEEEEELb0EE3strB5cxx11Ev
FNDA:4,_ZN4unit13to_str_type_tINS_13compound_unitIJNS_6secondILi2EEENS2_ILi3EEENS_5meterILi1EEENS2_ILin2EEEEEELb0EE3strB5cxx11Ev
FN:181,_ZN4unit13to_str_type_tINS_13compound_unitIJNS_6secondILi3EEENS_5meterILi1EEEEEELb0EE3strB5cxx11Ev
FNDA:4,_ZN4unit13to_str_type_tINS_13compound_unitIJNS_6secondILi3EEENS_5meterILi1EEEEEELb0EE3strB5cxx11Ev
FN:181,_ZN4unit13to_str_type_tINS_13compound_unitIJNS_6secondILi1EEENS_5meterILi1EEEEEELb0EE3strB5cxx11Ev
FNDA:4,_ZN4unit13to_str_type_tINS_13compound_unitIJNS_6secondILi1EEENS_5meterILi1EEEEEELb0EE3strB5cxx11Ev
FN:181,_ZN4unit13to_str_type_tINS_13compound_unitIJNS_5meterILi5EEENS_6secondILin3EEEEEELb0EE3strB5cxx11Ev
FNDA:4,_ZN4unit13to_str_type_tINS_13compound_unitIJNS_5meterILi5EEENS_6secondILin3EEEEEELb0EE3strB5cxx11Ev
FN:181,_ZN4unit13to_str_type_tINS_13compound_unitIJNS_5meterILi1EEENS_6secondILin2EEEEEELb0EE3strB5cxx11Ev
FNDA:8,_ZN4unit13to_str_type_tINS_13compound_unitIJNS_5meterILi1EEENS_6secondILin2EEEEEELb0EE3strB5cxx11Ev
FN:181,_ZN4unit13to_str_type_tINS_13compound_unitIJNS_5meterILi1EEENS_6secondILi0EEEEEELb0EE3strB5cxx11Ev
FNDA:4,_ZN4unit13to_str_type_tINS_13compound_unitIJNS_5meterILi1EEENS_6secondILi0EEEEEELb0EE3strB5cxx11Ev
FN:181,_ZN4unit13to_str_type_tINS_13compound_unitIJNS_5meterILi1EEEEEELb0EE3strB5cxx11Ev
FNDA:12,_ZN4unit13to_str_type_tINS_13compound_unitIJNS_5meterILi1EEEEEELb0EE3strB5cxx11Ev
FN:181,_ZN4unit13to_str_type_tINS_13compound_unitIJNS_5meterILi2EEENS2_ILi6EEENS_6secondILin4EEENS2_ILin8EEEEEELb0EE3strB5cxx11Ev
FNDA:4,_ZN4unit13to_str_type_tINS_13compound_unitIJNS_5meterILi2EEENS2_ILi6EEENS_6secondILin4EEENS2_ILin8EEEEEELb0EE3strB5cxx11Ev
FN:181,_ZN4unit13to_str_type_tINS_13compound_unitIJNS_6secondILin4EEEEEELb0EE3strB5cxx11Ev
FNDA:4,_ZN4unit13to_str_type_tINS_13compound_unitIJNS_6secondILin4EEEEEELb0EE3strB5cxx11Ev
FN:181,_ZN4unit13to_str_type_tINS_13compound_unitIJNS_5meterILin8EEEEEELb0EE3strB5cxx11Ev
FNDA:4,_ZN4unit13to_str_type_tINS_13compound_unitIJNS_5meterILin8EEEEEELb0EE3strB5cxx11Ev
FN:181,_ZN4unit13to_str_type_tINS_13compound_unitIJNS_6secondILin1EEEEEELb0EE3strB5cxx11Ev
FNDA:4,_ZN4unit13to_str_type_tINS_13compound_unitIJNS_6secondILin1EEEEEELb0EE3strB5cxx11Ev
FN:181,_ZN4unit13to_str_type_tINS_13compound_unitIJNS_6secondILi3EEENS_5meterILi1EEENS2_ILin2EEEEEELb0EE3strB5cxx11Ev
FNDA:4,_ZN4unit13to_str_type_tINS_13compound_unitIJNS_6secondILi3EEENS_5meterILi1EEENS2_ILin2EEEEEELb0EE3strB5cxx11Ev
FN:181,_ZN4unit13to_str_type_tINS_13compound_unitIJNS_6secondILin3EEEEEELb0EE3strB5cxx11Ev
FNDA:4,_ZN4unit13to_str_type_tINS_13compound_unitIJNS_6secondILin3EEEEEELb0EE3strB5cxx11Ev
FN:181,_ZN4unit13to_str_type_tINS_13compound_unitIJNS_6secondILin2EEEEEELb0EE3strB5cxx11Ev
FNDA:8,_ZN4unit13to_str_type_tINS_13compound_unitIJNS_6secondILin2EEEEEELb0EE3strB5cxx11Ev
FN:181,_ZN4unit13to_str_type_tINS_13compound_unitIJNS_6secondILi0EEEEEELb0EE3strB5cxx11Ev
FNDA:4,_ZN4unit13to_str_type_tINS_13compound_unitIJNS_6secondILi0EEEEEELb0EE3strB5cxx11Ev
FN:181,_ZN4unit13to_str_type_tINS_13compound_unitIJNS_5meterILi6EEENS_6secondILin4EEENS2_ILin8EEEEEELb0EE3strB5cxx11Ev
FNDA:4,_ZN4unit13to_str_type_tINS_13compound_unitIJNS_5meterILi6EEENS_6secondILin4EEENS2_ILin8EEEEEELb0EE3strB5cxx11Ev
FN:181,_ZN4unit13to_str_type_tINS_13compound_unitIJNS_6secondILin6EEEEEELb0EE3strB5cxx11Ev
FNDA:4,_ZN4unit13to_str_type_tINS_13compound_unitIJNS_6secondILin6EEEEEELb0EE3strB5cxx11Ev
FN:181,_ZN4unit13to_str_type_tINS_13compound_unitIJNS_6secondILin4EEENS_5meterILin8EEEEEELb0EE3strB5cxx11Ev
FNDA:4,_ZN4unit13to_str_type_tINS_13compound_unitIJNS_6secondILin4EEENS_5meterILin8EEEEEELb0EE3strB5cxx11Ev
FN:192,_ZN4unit13to_str_type_tINS_13compound_unitIJEEELb1EE3strB5cxx11Ev
FNDA:44,_ZN4unit13to_str_type_tINS_13compound_unitIJEEELb1EE3strB5cxx11Ev
DA:181,4
DA:184,4
DA:181,4
DA:184,4
DA:181,4
DA:184,4
DA:181,4
DA:184,4
DA:181,4
DA:184,4
DA:181,4
DA:184,4
DA:181,8
DA:184,8
DA:181,4
DA:184,4
DA:181,12
DA:184,12
DA:181,4
DA:184,4
DA:181,4
DA:184,4
DA:181,4
DA:184,4
DA:181,4
DA:184,4
DA:181,4
DA:184,4
DA:181,4
DA:184,4
DA:181,8
DA:184,8
DA:181,4
DA:184,4
DA:181,4
DA:184,4
DA:181,4
DA:184,4
DA:181,4
DA:184,4
DA:192,44
DA:194,44
end_of_record
SF:/usr/include/c++/9/ext/type_traits.h
FN:152,_ZN9__gnu_cxx17__is_null_pointerIcEEbPT_
FNDA:96,_ZN9__gnu_cxx17__is_null_pointerIcEEbPT_
FN:152,_ZN9__gnu_cxx17__is_null_pointerIKcEEbPT_
FNDA:140,_ZN9__gnu_cxx17__is_null_pointerIKcEEbPT_
DA:152,96
DA:153,96
DA:152,140
DA:153,140
end_of_record
SF:/home/ptesic@syrmia.com/Desktop/VS/final_exam/2023_Analysis_Compound_Unit/unit_tests/build-CU_UnitTests-Desktop-Debug/tst_compound_unit.moc
FN:117,_ZN13compound_unit18qt_static_metacallEP7QObjectN11QMetaObject4CallEiPPv
FNDA:60,_ZN13compound_unit18qt_static_metacallEP7QObjectN11QMetaObject4CallEiPPv
FN:154,_ZNK13compound_unit10metaObjectEv
FNDA:84,_ZNK13compound_unit10metaObjectEv
FN:159,_ZN13compound_unit11qt_metacastEPKc
FNDA:0,_ZN13compound_unit11qt_metacastEPKc
FN:167,_ZN13compound_unit11qt_metacallEN11QMetaObject4CallEiPPv
FNDA:0,_ZN13compound_unit11qt_metacallEN11QMetaObject4CallEiPPv
DA:117,60
DA:119,60
DA:120,60
DA:122,60
DA:123,4
DA:124,4
DA:125,4
DA:126,4
DA:127,4
DA:128,4
DA:129,4
DA:130,4
DA:131,4
DA:132,4
DA:133,4
DA:134,4
DA:135,4
DA:136,4
DA:137,4
DA:138,60
DA:142,60
DA:154,84
DA:156,84
DA:159,0
DA:161,0
DA:162,0
DA:163,0
DA:164,0
DA:167,0
DA:169,0
DA:170,0
DA:171,0
DA:172,0
DA:173,0
DA:174,0
DA:175,0
DA:176,0
DA:177,0
DA:178,0
DA:179,0
DA:181,0
end_of_record
SF:/usr/include/c++/9/bits/basic_string.tcc
FN:206,_ZNSt7__cxx1112basic_stringIcSt11char_traitsIcESaIcEE12_M_constructIPcEEvT_S7_St20forward_iterator_tag
FNDA:96,_ZNSt7__cxx1112basic_stringIcSt11char_traitsIcESaIcEE12_M_constructIPcEEvT_S7_St20forward_iterator_tag
FN:206,_ZNSt7__cxx1112basic_stringIcSt11char_traitsIcESaIcEE12_M_constructIPKcEEvT_S8_St20forward_iterator_tag
FNDA:140,_ZNSt7__cxx1112basic_stringIcSt11char_traitsIcESaIcEE12_M_constructIPKcEEvT_S8_St20forward_iterator_tag
DA:206,96
DA:211,96
DA:212,0
DA:215,96
DA:217,96
DA:219,0
DA:220,0
DA:225,96
DA:226,0
DA:228,0
DA:229,0
DA:232,96
DA:233,96
DA:206,140
DA:211,140
DA:212,0
DA:215,140
DA:217,140
DA:219,0
DA:220,0
DA:225,140
DA:226,0
DA:228,0
DA:229,0
DA:232,140
DA:233,140
end_of_record
SF:/usr/include/c++/9/bits/stl_iterator_base_funcs.h
FN:98,_ZSt10__distanceIPcENSt15iterator_traitsIT_E15difference_typeES2_S2_St26random_access_iterator_tag
FNDA:96,_ZSt10__distanceIPcENSt15iterator_traitsIT_E15difference_typeES2_S2_St26random_access_iterator_tag
FN:98,_ZSt10__distanceIPKcENSt15iterator_traitsIT_E15difference_typeES3_S3_St26random_access_iterator_tag
FNDA:140,_ZSt10__distanceIPKcENSt15iterator_traitsIT_E15difference_typeES3_S3_St26random_access_iterator_tag
FN:138,_ZSt8distanceIPcENSt15iterator_traitsIT_E15difference_typeES2_S2_
FNDA:96,_ZSt8distanceIPcENSt15iterator_traitsIT_E15difference_typeES2_S2_
FN:138,_ZSt8distanceIPKcENSt15iterator_traitsIT_E15difference_typeES3_S3_
FNDA:140,_ZSt8distanceIPKcENSt15iterator_traitsIT_E15difference_typeES3_S3_
DA:98,96
DA:104,96
DA:98,140
DA:104,140
DA:138,96
DA:141,96
DA:142,192
DA:138,140
DA:141,140
DA:142,280
end_of_record
SF:/usr/include/c++/9/bits/move.h
FN:99,_ZSt4moveIRSaIcEEONSt16remove_referenceIT_E4typeEOS3_
FNDA:0,_ZSt4moveIRSaIcEEONSt16remove_referenceIT_E4typeEOS3_
FN:99,_ZSt4moveIRNSt7__cxx1112basic_stringIcSt11char_traitsIcESaIcEEEEONSt16remove_referenceIT_E4typeEOS8_
FNDA:288,_ZSt4moveIRNSt7__cxx1112basic_stringIcSt11char_traitsIcESaIcEEEEONSt16remove_referenceIT_E4typeEOS8_
DA:99,0
DA:100,0
DA:99,288
DA:100,288
end_of_record
SF:/usr/include/c++/9/ext/new_allocator.h
FN:80,_ZN9__gnu_cxx13new_allocatorIcEC2Ev
FNDA:0,_ZN9__gnu_cxx13new_allocatorIcEC2Ev
FN:89,_ZN9__gnu_cxx13new_allocatorIcED2Ev
FNDA:0,_ZN9__gnu_cxx13new_allocatorIcED2Ev
DA:80,0
DA:89,0
end_of_record
SF:/home/ptesic@syrmia.com/Desktop/VS/final_exam/2023_Analysis_Compound_Unit/unit_tests/CU_UnitTests/tst_compound_unit.cpp
FN:40,_ZN13compound_unit24testCompoundUnitTemplateEv
FNDA:4,_ZN13compound_unit24testCompoundUnitTemplateEv
FN:50,_ZN13compound_unit24testMergingCompoundUnitsEv
FNDA:4,_ZN13compound_unit24testMergingCompoundUnitsEv
FN:64,_ZN13compound_unit28testCondensingCompoundUnits1Ev
FNDA:4,_ZN13compound_unit28testCondensingCompoundUnits1Ev
FN:81,_ZN13compound_unit28testCondensingCompoundUnits2Ev
FNDA:4,_ZN13compound_unit28testCondensingCompoundUnits2Ev
FN:98,_ZN13compound_unit28testMultiplyingCompoundUnitsEv
FNDA:4,_ZN13compound_unit28testMultiplyingCompoundUnitsEv
FN:116,_ZN13compound_unit26testDividingCompoundUnits1Ev
FNDA:4,_ZN13compound_unit26testDividingCompoundUnits1Ev
FN:130,_ZN13compound_unit26testDividingCompoundUnits2Ev
FNDA:4,_ZN13compound_unit26testDividingCompoundUnits2Ev
FN:146,_ZN13compound_unit27testRemovingZeroEqualDegresEv
FNDA:4,_ZN13compound_unit27testRemovingZeroEqualDegresEv
FN:165,_ZN13compound_unit32testUnfoldingNestedCompoundUnitsEv
FNDA:4,_ZN13compound_unit32testUnfoldingNestedCompoundUnitsEv
FN:187,_ZN13compound_unit27testFormatingCompoundUnits1Ev
FNDA:4,_ZN13compound_unit27testFormatingCompoundUnits1Ev
FN:217,_ZN13compound_unit27testFormatingCompoundUnits2Ev
FNDA:4,_ZN13compound_unit27testFormatingCompoundUnits2Ev
FN:243,_ZN13compound_unit19testIsValidTemplateEv
FNDA:4,_ZN13compound_unit19testIsValidTemplateEv
FN:249,_ZN13compound_unitC2Ev
FNDA:4,_ZN13compound_unitC2Ev
FN:254,_ZN13compound_unitD2Ev
FNDA:4,_ZN13compound_unitD2Ev
FN:254,_ZN13compound_unitD0Ev
FNDA:0,_ZN13compound_unitD0Ev
FN:259,_ZN13compound_unit12initTestCaseEv
FNDA:4,_ZN13compound_unit12initTestCaseEv
FN:264,_ZN13compound_unit15cleanupTestCaseEv
FNDA:4,_ZN13compound_unit15cleanupTestCaseEv
FN:269,_ZN13compound_unit10test_case1Ev
FNDA:4,_ZN13compound_unit10test_case1Ev
FN:274,main
FNDA:4,main
DA:40,4
DA:44,4
DA:45,4
DA:47,4
DA:50,4
DA:57,4
DA:59,4
DA:61,4
DA:64,4
DA:76,4
DA:77,4
DA:78,4
DA:81,4
DA:93,4
DA:94,4
DA:95,4
DA:98,4
DA:111,4
DA:112,4
DA:113,4
DA:116,4
DA:126,4
DA:127,4
DA:128,4
DA:130,4
DA:142,4
DA:143,4
DA:144,4
DA:146,4
DA:160,4
DA:161,4
DA:162,4
DA:165,4
DA:182,4
DA:183,4
DA:184,4
DA:187,4
DA:212,4
DA:213,4
DA:214,4
DA:217,4
DA:238,4
DA:239,4
DA:240,4
DA:243,4
DA:245,4
DA:249,4
DA:252,4
DA:254,0
DA:257,0
DA:254,4
DA:257,4
DA:259,4
DA:262,4
DA:264,4
DA:267,4
DA:269,4
DA:272,4
DA:274,4
end_of_record
SF:/usr/include/x86_64-linux-gnu/qt5/QtCore/qscopedpointer.h
FN:116,_ZNK14QScopedPointerI11QObjectData21QScopedPointerDeleterIS0_EEptEv
FNDA:84,_ZNK14QScopedPointerI11QObjectData21QScopedPointerDeleterIS0_EEptEv
DA:116,84
DA:118,84
end_of_record
SF:/usr/include/x86_64-linux-gnu/qt5/QtTest/qtestcase.h
FN:251,_ZN5QTest8Internal8toStringINSt7__cxx1112basic_stringIcSt11char_traitsIcESaIcEEEEENSt9enable_ifIXntsrN9QtPrivate13IsQEnumHelperIT_EE5ValueEPcE4typeERKSB_
FNDA:44,_ZN5QTest8Internal8toStringINSt7__cxx1112basic_stringIcSt11char_traitsIcESaIcEEEEENSt9enable_ifIXntsrN9QtPrivate13IsQEnumHelperIT_EE5ValueEPcE4typeERKSB_
FN:275,_ZN5QTest8toStringINSt7__cxx1112basic_stringIcSt11char_traitsIcESaIcEEEEEPcRKT_
FNDA:44,_ZN5QTest8toStringINSt7__cxx1112basic_stringIcSt11char_traitsIcESaIcEEEEEPcRKT_
FN:415,_ZN5QTest8qCompareINSt7__cxx1112basic_stringIcSt11char_traitsIcESaIcEEEPKcEEbRKT_RKT0_S8_S8_S8_i
FNDA:44,_ZN5QTest8qCompareINSt7__cxx1112basic_stringIcSt11char_traitsIcESaIcEEEPKcEEbRKT_RKT0_S8_S8_S8_i
DA:251,44
DA:253,44
DA:275,44
DA:277,44
DA:415,44
DA:418,44
DA:419,44
end_of_record
SF:/usr/include/c++/9/ext/string_conversions.h
FN:99,_ZN9__gnu_cxx12__to_xstringINSt7__cxx1112basic_stringIcSt11char_traitsIcESaIcEEEcEET_PFiPT0_mPKS8_P13__va_list_tagEmSB_z
FNDA:96,_ZN9__gnu_cxx12__to_xstringINSt7__cxx1112basic_stringIcSt11char_traitsIcESaIcEEEcEET_PFiPT0_mPKS8_P13__va_list_tagEmSB_z
DA:99,96
DA:105,96
DA:109,96
DA:111,96
DA:113,96
DA:115,96
end_of_record
SF:/usr/include/c++/9/bits/stl_iterator_base_types.h
FN:205,_ZSt19__iterator_categoryIPcENSt15iterator_traitsIT_E17iterator_categoryERKS2_
FNDA:96,_ZSt19__iterator_categoryIPcENSt15iterator_traitsIT_E17iterator_categoryERKS2_
FN:205,_ZSt19__iterator_categoryIPKcENSt15iterator_traitsIT_E17iterator_categoryERKS3_
FNDA:140,_ZSt19__iterator_categoryIPKcENSt15iterator_traitsIT_E17iterator_categoryERKS3_
DA:205,96
DA:206,96
DA:205,140
DA:206,140
end_of_record
SF:/home/ptesic@syrmia.com/Desktop/VS/final_exam/2023_Analysis_Compound_Unit/unit_tests/CU_source_code/base_unit.hpp
FN:41,_ZN4unit5meterILin8EE3strEv
FNDA:4,_ZN4unit5meterILin8EE3strEv
FN:41,_ZN4unit5meterILi6EE3strEv
FNDA:4,_ZN4unit5meterILi6EE3strEv
FN:41,_ZN4unit5meterILi2EE3strEv
FNDA:8,_ZN4unit5meterILi2EE3strEv
FN:41,_ZN4unit5meterILi5EE3strEv
FNDA:4,_ZN4unit5meterILi5EE3strEv
FN:41,_ZN4unit5meterILi1EE3strEv
FNDA:28,_ZN4unit5meterILi1EE3strEv
FN:65,_ZN4unit6secondILin6EE3strEv
FNDA:4,_ZN4unit6secondILin6EE3strEv
FN:65,_ZN4unit6secondILi0EE3strEv
FNDA:4,_ZN4unit6secondILi0EE3strEv
FN:65,_ZN4unit6secondILin2EE3strEv
FNDA:8,_ZN4unit6secondILin2EE3strEv
FN:65,_ZN4unit6secondILin3EE3strEv
FNDA:4,_ZN4unit6secondILin3EE3strEv
FN:65,_ZN4unit6secondILin1EE3strEv
FNDA:4,_ZN4unit6secondILin1EE3strEv
FN:65,_ZN4unit6secondILin4EE3strEv
FNDA:8,_ZN4unit6secondILin4EE3strEv
FN:65,_ZN4unit6secondILi1EE3strEv
FNDA:4,_ZN4unit6secondILi1EE3strEv
FN:65,_ZN4unit6secondILi3EE3strEv
FNDA:8,_ZN4unit6secondILi3EE3strEv
FN:65,_ZN4unit6secondILi2EE3strEv
FNDA:4,_ZN4unit6secondILi2EE3strEv
DA:41,4
DA:43,4
DA:41,4
DA:43,4
DA:41,8
DA:43,8
DA:41,4
DA:43,4
DA:41,28
DA:43,28
DA:65,4
DA:67,4
DA:65,4
DA:67,4
DA:65,8
DA:67,8
DA:65,4
DA:67,4
DA:65,4
DA:67,4
DA:65,8
DA:67,8
DA:65,4
DA:67,4
DA:65,8
DA:67,8
DA:65,4
DA:67,4
end_of_record
