TN:
SF:/home/ptesic@syrmia.com/Desktop/VS/final_exam/2023_Analysis_Compound_Unit/unit_tests/CU_UnitTests/tst_compound_unit.cpp
FN:40,_ZN13compound_unit24testCompoundUnitTemplateEv
FN:50,_ZN13compound_unit24testMergingCompoundUnitsEv
FN:64,_ZN13compound_unit28testCondensingCompoundUnits1Ev
FN:81,_ZN13compound_unit28testCondensingCompoundUnits2Ev
FN:98,_ZN13compound_unit28testMultiplyingCompoundUnitsEv
FN:116,_ZN13compound_unit26testDividingCompoundUnits1Ev
FN:130,_ZN13compound_unit26testDividingCompoundUnits2Ev
FN:146,_ZN13compound_unit27testRemovingZeroEqualDegresEv
FN:165,_ZN13compound_unit32testUnfoldingNestedCompoundUnitsEv
FN:187,_ZN13compound_unit27testFormatingCompoundUnits1Ev
FN:217,_ZN13compound_unit27testFormatingCompoundUnits2Ev
FN:243,_ZN13compound_unit19testIsValidTemplateEv
FN:249,_ZN13compound_unitC2Ev
FN:254,_ZN13compound_unitD0Ev
FN:254,_ZN13compound_unitD2Ev
FN:259,_ZN13compound_unit12initTestCaseEv
FN:264,_ZN13compound_unit15cleanupTestCaseEv
FN:269,_ZN13compound_unit10test_case1Ev
FN:274,main
FNDA:4,_ZN13compound_unit32testUnfoldingNestedCompoundUnitsEv
FNDA:4,_ZN13compound_unit10test_case1Ev
FNDA:4,_ZN13compound_unit24testMergingCompoundUnitsEv
FNDA:4,_ZN13compound_unit26testDividingCompoundUnits2Ev
FNDA:4,_ZN13compound_unitC2Ev
FNDA:4,_ZN13compound_unit19testIsValidTemplateEv
FNDA:4,_ZN13compound_unit28testCondensingCompoundUnits2Ev
FNDA:4,_ZN13compound_unit28testMultiplyingCompoundUnitsEv
FNDA:4,_ZN13compound_unit24testCompoundUnitTemplateEv
FNDA:4,main
FNDA:4,_ZN13compound_unitD2Ev
FNDA:4,_ZN13compound_unit12initTestCaseEv
FNDA:4,_ZN13compound_unit27testFormatingCompoundUnits1Ev
FNDA:4,_ZN13compound_unit27testFormatingCompoundUnits2Ev
FNDA:4,_ZN13compound_unit15cleanupTestCaseEv
FNDA:0,_ZN13compound_unitD0Ev
FNDA:4,_ZN13compound_unit28testCondensingCompoundUnits1Ev
FNDA:4,_ZN13compound_unit27testRemovingZeroEqualDegresEv
FNDA:4,_ZN13compound_unit26testDividingCompoundUnits1Ev
FNF:19
FNH:18
DA:40,4
DA:44,4
DA:45,4
DA:47,4
DA:50,4
DA:57,4
DA:59,4
DA:61,4
DA:64,4
DA:76,4
DA:77,4
DA:78,4
DA:81,4
DA:93,4
DA:94,4
DA:95,4
DA:98,4
DA:111,4
DA:112,4
DA:113,4
DA:116,4
DA:126,4
DA:127,4
DA:128,4
DA:130,4
DA:142,4
DA:143,4
DA:144,4
DA:146,4
DA:160,4
DA:161,4
DA:162,4
DA:165,4
DA:182,4
DA:183,4
DA:184,4
DA:187,4
DA:212,4
DA:213,4
DA:214,4
DA:217,4
DA:238,4
DA:239,4
DA:240,4
DA:243,4
DA:245,4
DA:249,4
DA:252,4
DA:254,4
DA:257,4
DA:259,4
DA:262,4
DA:264,4
DA:267,4
DA:269,4
DA:272,4
DA:274,4
LF:57
LH:57
end_of_record
TN:
SF:/home/ptesic@syrmia.com/Desktop/VS/final_exam/2023_Analysis_Compound_Unit/unit_tests/CU_source_code/base_unit.hpp
FN:41,_ZN4unit5meterILi6EE3strEv
FN:41,_ZN4unit5meterILi5EE3strEv
FN:41,_ZN4unit5meterILin8EE3strEv
FN:41,_ZN4unit5meterILi2EE3strEv
FN:41,_ZN4unit5meterILi1EE3strEv
FN:65,_ZN4unit6secondILi2EE3strEv
FN:65,_ZN4unit6secondILi1EE3strEv
FN:65,_ZN4unit6secondILi3EE3strEv
FN:65,_ZN4unit6secondILin3EE3strEv
FN:65,_ZN4unit6secondILin2EE3strEv
FN:65,_ZN4unit6secondILi0EE3strEv
FN:65,_ZN4unit6secondILin6EE3strEv
FN:65,_ZN4unit6secondILin4EE3strEv
FN:65,_ZN4unit6secondILin1EE3strEv
FNDA:4,_ZN4unit6secondILin1EE3strEv
FNDA:4,_ZN4unit5meterILin8EE3strEv
FNDA:28,_ZN4unit5meterILi1EE3strEv
FNDA:8,_ZN4unit5meterILi2EE3strEv
FNDA:8,_ZN4unit6secondILin2EE3strEv
FNDA:4,_ZN4unit5meterILi5EE3strEv
FNDA:4,_ZN4unit6secondILin3EE3strEv
FNDA:4,_ZN4unit6secondILi1EE3strEv
FNDA:8,_ZN4unit6secondILi3EE3strEv
FNDA:4,_ZN4unit6secondILi2EE3strEv
FNDA:4,_ZN4unit5meterILi6EE3strEv
FNDA:8,_ZN4unit6secondILin4EE3strEv
FNDA:4,_ZN4unit6secondILi0EE3strEv
FNDA:4,_ZN4unit6secondILin6EE3strEv
FNF:14
FNH:14
DA:41,48
DA:43,48
DA:65,48
DA:67,48
LF:4
LH:4
end_of_record
TN:
SF:/home/ptesic@syrmia.com/Desktop/VS/final_exam/2023_Analysis_Compound_Unit/unit_tests/CU_source_code/compound_unit.hpp
FN:181,_ZN4unit13to_str_type_tINS_13compound_unitIJNS_6secondILin1EEEEEELb0EE3strB5cxx11Ev
FN:181,_ZN4unit13to_str_type_tINS_13compound_unitIJNS_5meterILin8EEEEEELb0EE3strB5cxx11Ev
FN:181,_ZN4unit13to_str_type_tINS_13compound_unitIJNS_6secondILi1EEENS_5meterILi1EEEEEELb0EE3strB5cxx11Ev
FN:181,_ZN4unit13to_str_type_tINS_13compound_unitIJNS_5meterILi6EEENS_6secondILin4EEENS2_ILin8EEEEEELb0EE3strB5cxx11Ev
FN:181,_ZN4unit13to_str_type_tINS_13compound_unitIJNS_6secondILin4EEENS_5meterILin8EEEEEELb0EE3strB5cxx11Ev
FN:181,_ZN4unit13to_str_type_tINS_13compound_unitIJNS_5meterILi1EEENS_6secondILi0EEEEEELb0EE3strB5cxx11Ev
FN:181,_ZN4unit13to_str_type_tINS_13compound_unitIJNS_5meterILi1EEENS_6secondILin2EEEEEELb0EE3strB5cxx11Ev
FN:181,_ZN4unit13to_str_type_tINS_13compound_unitIJNS_6secondILin2EEEEEELb0EE3strB5cxx11Ev
FN:181,_ZN4unit13to_str_type_tINS_13compound_unitIJNS_6secondILi3EEENS_5meterILi1EEEEEELb0EE3strB5cxx11Ev
FN:181,_ZN4unit13to_str_type_tINS_13compound_unitIJNS_5meterILi1EEEEEELb0EE3strB5cxx11Ev
FN:181,_ZN4unit13to_str_type_tINS_13compound_unitIJNS_5meterILi1EEENS_6secondILin1EEEEEELb0EE3strB5cxx11Ev
FN:181,_ZN4unit13to_str_type_tINS_13compound_unitIJNS_6secondILi3EEENS_5meterILi1EEENS2_ILin2EEEEEELb0EE3strB5cxx11Ev
FN:181,_ZN4unit13to_str_type_tINS_13compound_unitIJNS_6secondILin4EEEEEELb0EE3strB5cxx11Ev
FN:181,_ZN4unit13to_str_type_tINS_13compound_unitIJNS_6secondILi0EEEEEELb0EE3strB5cxx11Ev
FN:181,_ZN4unit13to_str_type_tINS_13compound_unitIJNS_5meterILi2EEENS2_ILi6EEENS_6secondILin4EEENS2_ILin8EEEEEELb0EE3strB5cxx11Ev
FN:181,_ZN4unit13to_str_type_tINS_13compound_unitIJNS_6secondILi2EEENS2_ILi3EEENS_5meterILi1EEENS2_ILin2EEEEEELb0EE3strB5cxx11Ev
FN:181,_ZN4unit13to_str_type_tINS_13compound_unitIJNS_6secondILin3EEEEEELb0EE3strB5cxx11Ev
FN:181,_ZN4unit13to_str_type_tINS_13compound_unitIJNS_6secondILin6EEEEEELb0EE3strB5cxx11Ev
FN:181,_ZN4unit13to_str_type_tINS_13compound_unitIJNS_5meterILi2EEENS_6secondILin6EEEEEELb0EE3strB5cxx11Ev
FN:181,_ZN4unit13to_str_type_tINS_13compound_unitIJNS_5meterILi5EEENS_6secondILin3EEEEEELb0EE3strB5cxx11Ev
FN:192,_ZN4unit13to_str_type_tINS_13compound_unitIJEEELb1EE3strB5cxx11Ev
FNDA:4,_ZN4unit13to_str_type_tINS_13compound_unitIJNS_6secondILi3EEENS_5meterILi1EEEEEELb0EE3strB5cxx11Ev
FNDA:4,_ZN4unit13to_str_type_tINS_13compound_unitIJNS_5meterILi1EEENS_6secondILi0EEEEEELb0EE3strB5cxx11Ev
FNDA:8,_ZN4unit13to_str_type_tINS_13compound_unitIJNS_5meterILi1EEENS_6secondILin2EEEEEELb0EE3strB5cxx11Ev
FNDA:8,_ZN4unit13to_str_type_tINS_13compound_unitIJNS_6secondILin2EEEEEELb0EE3strB5cxx11Ev
FNDA:4,_ZN4unit13to_str_type_tINS_13compound_unitIJNS_6secondILin4EEENS_5meterILin8EEEEEELb0EE3strB5cxx11Ev
FNDA:4,_ZN4unit13to_str_type_tINS_13compound_unitIJNS_5meterILi6EEENS_6secondILin4EEENS2_ILin8EEEEEELb0EE3strB5cxx11Ev
FNDA:4,_ZN4unit13to_str_type_tINS_13compound_unitIJNS_6secondILin1EEEEEELb0EE3strB5cxx11Ev
FNDA:44,_ZN4unit13to_str_type_tINS_13compound_unitIJEEELb1EE3strB5cxx11Ev
FNDA:4,_ZN4unit13to_str_type_tINS_13compound_unitIJNS_6secondILi1EEENS_5meterILi1EEEEEELb0EE3strB5cxx11Ev
FNDA:4,_ZN4unit13to_str_type_tINS_13compound_unitIJNS_5meterILin8EEEEEELb0EE3strB5cxx11Ev
FNDA:4,_ZN4unit13to_str_type_tINS_13compound_unitIJNS_5meterILi2EEENS_6secondILin6EEEEEELb0EE3strB5cxx11Ev
FNDA:4,_ZN4unit13to_str_type_tINS_13compound_unitIJNS_5meterILi5EEENS_6secondILin3EEEEEELb0EE3strB5cxx11Ev
FNDA:4,_ZN4unit13to_str_type_tINS_13compound_unitIJNS_6secondILi2EEENS2_ILi3EEENS_5meterILi1EEENS2_ILin2EEEEEELb0EE3strB5cxx11Ev
FNDA:4,_ZN4unit13to_str_type_tINS_13compound_unitIJNS_6secondILin3EEEEEELb0EE3strB5cxx11Ev
FNDA:4,_ZN4unit13to_str_type_tINS_13compound_unitIJNS_6secondILin6EEEEEELb0EE3strB5cxx11Ev
FNDA:4,_ZN4unit13to_str_type_tINS_13compound_unitIJNS_5meterILi1EEENS_6secondILin1EEEEEELb0EE3strB5cxx11Ev
FNDA:4,_ZN4unit13to_str_type_tINS_13compound_unitIJNS_6secondILi3EEENS_5meterILi1EEENS2_ILin2EEEEEELb0EE3strB5cxx11Ev
FNDA:4,_ZN4unit13to_str_type_tINS_13compound_unitIJNS_6secondILin4EEEEEELb0EE3strB5cxx11Ev
FNDA:4,_ZN4unit13to_str_type_tINS_13compound_unitIJNS_5meterILi2EEENS2_ILi6EEENS_6secondILin4EEENS2_ILin8EEEEEELb0EE3strB5cxx11Ev
FNDA:4,_ZN4unit13to_str_type_tINS_13compound_unitIJNS_6secondILi0EEEEEELb0EE3strB5cxx11Ev
FNDA:12,_ZN4unit13to_str_type_tINS_13compound_unitIJNS_5meterILi1EEEEEELb0EE3strB5cxx11Ev
FNF:21
FNH:21
DA:181,96
DA:184,96
DA:192,44
DA:194,44
LF:4
LH:4
end_of_record
TN:
SF:/usr/include/c++/9/bits/basic_string.tcc
FN:206,_ZNSt7__cxx1112basic_stringIcSt11char_traitsIcESaIcEE12_M_constructIPcEEvT_S7_St20forward_iterator_tag
FN:206,_ZNSt7__cxx1112basic_stringIcSt11char_traitsIcESaIcEE12_M_constructIPKcEEvT_S8_St20forward_iterator_tag
FNDA:96,_ZNSt7__cxx1112basic_stringIcSt11char_traitsIcESaIcEE12_M_constructIPcEEvT_S7_St20forward_iterator_tag
FNDA:140,_ZNSt7__cxx1112basic_stringIcSt11char_traitsIcESaIcEE12_M_constructIPKcEEvT_S8_St20forward_iterator_tag
FNF:2
FNH:2
DA:206,236
DA:211,236
DA:212,0
DA:215,236
DA:217,236
DA:219,0
DA:220,0
DA:225,236
DA:226,0
DA:228,0
DA:229,0
DA:232,236
DA:233,236
LF:13
LH:7
end_of_record
